target datalayout = "e-m:e-p270:32:32-p271:32:32-p272:64:64-i64:64-i128:128-f80:128-n8:16:32:64-S128"
target triple = "x86_64-pc-linux-gnu"

%struct.mbedtls_pk_context = type { ptr, ptr }
%struct.mbedtls_ecp_keypair = type { %struct.mbedtls_ecp_group, %struct.mbedtls_mpi, %struct.mbedtls_ecp_point }
%struct.mbedtls_ecp_group = type { i32, %struct.mbedtls_mpi, %struct.mbedtls_mpi, %struct.mbedtls_mpi, %struct.mbedtls_ecp_point, %struct.mbedtls_mpi, i64, i64, i32, ptr, ptr, ptr, ptr, ptr, i64 }
%struct.mbedtls_mpi = type { ptr, i16, i16 }
%struct.mbedtls_ecp_point = type { %struct.mbedtls_mpi, %struct.mbedtls_mpi, %struct.mbedtls_mpi }

; Function Attrs: inlinehint nounwind uwtable
define internal ptr @mbedtls_pk_ec(ptr %0, ptr %1) #3 {
  %3 = alloca ptr, align 8
  %4 = alloca %struct.mbedtls_pk_context, align 8
  %5 = getelementptr inbounds nuw { ptr, ptr }, ptr %4, i32 0, i32 0
  store ptr %0, ptr %5, align 8
  %6 = getelementptr inbounds nuw { ptr, ptr }, ptr %4, i32 0, i32 1
  store ptr %1, ptr %6, align 8
  %7 = call i32 @mbedtls_pk_get_type(ptr noundef %4)
  switch i32 %7, label %11 [
    i32 2, label %8
    i32 3, label %8
    i32 4, label %8
  ]

8:                                                ; preds = %2, %2, %2
  %9 = getelementptr inbounds nuw %struct.mbedtls_pk_context, ptr %4, i32 0, i32 1
  %10 = load ptr, ptr %9, align 8, !tbaa !17
  store ptr %10, ptr %3, align 8
  br label %12

11:                                               ; preds = %2
  store ptr null, ptr %3, align 8
  br label %12

12:                                               ; preds = %11, %8
  %13 = load ptr, ptr %3, align 8
  ret ptr %13
}

; Function Attrs: nounwind uwtable
define internal i32 @pk_write_ec_pubkey(ptr noundef %0, ptr noundef %1, ptr noundef %2) #0 {
  %4 = alloca i32, align 4
  %5 = alloca ptr, align 8
  %6 = alloca ptr, align 8
  %7 = alloca ptr, align 8
  %8 = alloca i64, align 8
  %9 = alloca [133 x i8], align 16
  %10 = alloca ptr, align 8
  %11 = alloca i32, align 4
  %12 = alloca i32, align 4
  store ptr %0, ptr %5, align 8, !tbaa !3
  store ptr %1, ptr %6, align 8, !tbaa !9
  store ptr %2, ptr %7, align 8, !tbaa !11
  call void @llvm.lifetime.start.p0(i64 8, ptr %8) #7
  store i64 0, ptr %8, align 8, !tbaa !15
  call void @llvm.lifetime.start.p0(i64 133, ptr %9) #7
  call void @llvm.lifetime.start.p0(i64 8, ptr %10) #7
  %13 = load ptr, ptr %7, align 8, !tbaa !11
  %14 = getelementptr inbounds nuw { ptr, ptr }, ptr %13, i32 0, i32 0
  %15 = load ptr, ptr %14, align 8
  %16 = getelementptr inbounds nuw { ptr, ptr }, ptr %13, i32 0, i32 1
  %17 = load ptr, ptr %16, align 8
  %18 = call ptr @mbedtls_pk_ec(ptr %15, ptr %17)
  store ptr %18, ptr %10, align 8, !tbaa !20
  call void @llvm.lifetime.start.p0(i64 4, ptr %11) #7
  store i32 -110, ptr %11, align 4, !tbaa !13
  %19 = load ptr, ptr %10, align 8, !tbaa !20
  %20 = getelementptr inbounds nuw %struct.mbedtls_ecp_keypair, ptr %19, i32 0, i32 0
  %21 = load ptr, ptr %10, align 8, !tbaa !20
  %22 = getelementptr inbounds nuw %struct.mbedtls_ecp_keypair, ptr %21, i32 0, i32 2
  %23 = getelementptr inbounds [133 x i8], ptr %9, i64 0, i64 0
  %24 = call i32 @mbedtls_ecp_point_write_binary(ptr noundef %20, ptr noundef %22, i32 noundef 0, ptr noundef %8, ptr noundef %23, i64 noundef 133)
  store i32 %24, ptr %11, align 4, !tbaa !13
  %25 = icmp ne i32 %24, 0
  br i1 %25, label %26, label %28

26:                                               ; preds = %3
  %27 = load i32, ptr %11, align 4, !tbaa !13
  store i32 %27, ptr %4, align 4
  store i32 1, ptr %12, align 4
  br label %55

28:                                               ; preds = %3
  %29 = load ptr, ptr %5, align 8, !tbaa !3
  %30 = load ptr, ptr %29, align 8, !tbaa !9
  %31 = load ptr, ptr %6, align 8, !tbaa !9
  %32 = icmp ult ptr %30, %31
  br i1 %32, label %42, label %33

33:                                               ; preds = %28
  %34 = load ptr, ptr %5, align 8, !tbaa !3
  %35 = load ptr, ptr %34, align 8, !tbaa !9
  %36 = load ptr, ptr %6, align 8, !tbaa !9
  %37 = ptrtoint ptr %35 to i64
  %38 = ptrtoint ptr %36 to i64
  %39 = sub i64 %37, %38
  %40 = load i64, ptr %8, align 8, !tbaa !15
  %41 = icmp ult i64 %39, %40
  br i1 %41, label %42, label %43

42:                                               ; preds = %33, %28
  store i32 -108, ptr %4, align 4
  store i32 1, ptr %12, align 4
  br label %55

43:                                               ; preds = %33
  %44 = load i64, ptr %8, align 8, !tbaa !15
  %45 = load ptr, ptr %5, align 8, !tbaa !3
  %46 = load ptr, ptr %45, align 8, !tbaa !9
  %47 = sub i64 0, %44
  %48 = getelementptr inbounds i8, ptr %46, i64 %47
  store ptr %48, ptr %45, align 8, !tbaa !9
  %49 = load ptr, ptr %5, align 8, !tbaa !3
  %50 = load ptr, ptr %49, align 8, !tbaa !9
  %51 = getelementptr inbounds [133 x i8], ptr %9, i64 0, i64 0
  %52 = load i64, ptr %8, align 8, !tbaa !15
  call void @llvm.memcpy.p0.p0.i64(ptr align 1 %50, ptr align 16 %51, i64 %52, i1 false)
  %53 = load i64, ptr %8, align 8, !tbaa !15
  %54 = trunc i64 %53 to i32
  store i32 %54, ptr %4, align 4
  store i32 1, ptr %12, align 4
  br label %55

55:                                               ; preds = %43, %42, %26
  call void @llvm.lifetime.end.p0(i64 4, ptr %11) #7
  call void @llvm.lifetime.end.p0(i64 8, ptr %10) #7
  call void @llvm.lifetime.end.p0(i64 133, ptr %9) #7
  call void @llvm.lifetime.end.p0(i64 8, ptr %8) #7
  %56 = load i32, ptr %4, align 4
  ret i32 %56
}

; Function Attrs: inlinehint nounwind uwtable
define internal ptr @mbedtls_pk_rsa(ptr %0, ptr %1) #3 {
  %3 = alloca ptr, align 8
  %4 = alloca %struct.mbedtls_pk_context, align 8
  %5 = getelementptr inbounds nuw { ptr, ptr }, ptr %4, i32 0, i32 0
  store ptr %0, ptr %5, align 8
  %6 = getelementptr inbounds nuw { ptr, ptr }, ptr %4, i32 0, i32 1
  store ptr %1, ptr %6, align 8
  %7 = call i32 @mbedtls_pk_get_type(ptr noundef %4)
  switch i32 %7, label %11 [
    i32 1, label %8
  ]

8:                                                ; preds = %2
  %9 = getelementptr inbounds nuw %struct.mbedtls_pk_context, ptr %4, i32 0, i32 1
  %10 = load ptr, ptr %9, align 8, !tbaa !17
  store ptr %10, ptr %3, align 8
  br label %12

11:                                               ; preds = %2
  store ptr null, ptr %3, align 8
  br label %12

12:                                               ; preds = %11, %8
  %13 = load ptr, ptr %3, align 8
  ret ptr %13
}

; Function Attrs: nounwind uwtable
define hidden i32 @mbedtls_pk_write_pubkey(ptr noundef %0, ptr noundef %1, ptr noundef %2) #0 {
  %4 = alloca i32, align 4
  %5 = alloca ptr, align 8
  %6 = alloca ptr, align 8
  %7 = alloca ptr, align 8
  %8 = alloca i32, align 4
  %9 = alloca i64, align 8
  %10 = alloca i32, align 4
  store ptr %0, ptr %5, align 8, !tbaa !3
  store ptr %1, ptr %6, align 8, !tbaa !9
  store ptr %2, ptr %7, align 8, !tbaa !11
  call void @llvm.lifetime.start.p0(i64 4, ptr %8) #7
  store i32 -110, ptr %8, align 4, !tbaa !13
  call void @llvm.lifetime.start.p0(i64 8, ptr %9) #7
  store i64 0, ptr %9, align 8, !tbaa !15
  %11 = load ptr, ptr %7, align 8, !tbaa !11
  %12 = call i32 @mbedtls_pk_get_type(ptr noundef %11)
  %13 = icmp eq i32 %12, 1
  br i1 %13, label %14, label %36

14:                                               ; preds = %3
  br label %15

15:                                               ; preds = %14
  %16 = load ptr, ptr %7, align 8, !tbaa !11
  %17 = getelementptr inbounds nuw { ptr, ptr }, ptr %16, i32 0, i32 0
  %18 = load ptr, ptr %17, align 8
  %19 = getelementptr inbounds nuw { ptr, ptr }, ptr %16, i32 0, i32 1
  %20 = load ptr, ptr %19, align 8
  %21 = call ptr @mbedtls_pk_rsa(ptr %18, ptr %20)
  %22 = load ptr, ptr %6, align 8, !tbaa !9
  %23 = load ptr, ptr %5, align 8, !tbaa !3
  %24 = call i32 @mbedtls_rsa_write_pubkey(ptr noundef %21, ptr noundef %22, ptr noundef %23)
  store i32 %24, ptr %8, align 4, !tbaa !13
  %25 = icmp slt i32 %24, 0
  br i1 %25, label %26, label %28

26:                                               ; preds = %15
  %27 = load i32, ptr %8, align 4, !tbaa !13
  store i32 %27, ptr %4, align 4
  store i32 1, ptr %10, align 4
  br label %62

28:                                               ; preds = %15
  %29 = load i32, ptr %8, align 4, !tbaa !13
  %30 = sext i32 %29 to i64
  %31 = load i64, ptr %9, align 8, !tbaa !15
  %32 = add i64 %31, %30
  store i64 %32, ptr %9, align 8, !tbaa !15
  br label %33

33:                                               ; preds = %28
  br label %34

34:                                               ; preds = %33
  br label %35

35:                                               ; preds = %34
  br label %59

36:                                               ; preds = %3
  %37 = load ptr, ptr %7, align 8, !tbaa !11
  %38 = call i32 @mbedtls_pk_get_type(ptr noundef %37)
  %39 = icmp eq i32 %38, 2
  br i1 %39, label %40, label %57

40:                                               ; preds = %36
  br label %41

41:                                               ; preds = %40
  %42 = load ptr, ptr %5, align 8, !tbaa !3
  %43 = load ptr, ptr %6, align 8, !tbaa !9
  %44 = load ptr, ptr %7, align 8, !tbaa !11
  %45 = call i32 @pk_write_ec_pubkey(ptr noundef %42, ptr noundef %43, ptr noundef %44)
  store i32 %45, ptr %8, align 4, !tbaa !13
  %46 = icmp slt i32 %45, 0
  br i1 %46, label %47, label %49

47:                                               ; preds = %41
  %48 = load i32, ptr %8, align 4, !tbaa !13
  store i32 %48, ptr %4, align 4
  store i32 1, ptr %10, align 4
  br label %62

49:                                               ; preds = %41
  %50 = load i32, ptr %8, align 4, !tbaa !13
  %51 = sext i32 %50 to i64
  %52 = load i64, ptr %9, align 8, !tbaa !15
  %53 = add i64 %52, %51
  store i64 %53, ptr %9, align 8, !tbaa !15
  br label %54

54:                                               ; preds = %49
  br label %55

55:                                               ; preds = %54
  br label %56

56:                                               ; preds = %55
  br label %58

57:                                               ; preds = %36
  store i32 -14720, ptr %4, align 4
  store i32 1, ptr %10, align 4
  br label %62

58:                                               ; preds = %56
  br label %59

59:                                               ; preds = %58, %35
  %60 = load i64, ptr %9, align 8, !tbaa !15
  %61 = trunc i64 %60 to i32
  store i32 %61, ptr %4, align 4
  store i32 1, ptr %10, align 4
  br label %62

62:                                               ; preds = %59, %57, %47, %26
  call void @llvm.lifetime.end.p0(i64 8, ptr %9) #7
  call void @llvm.lifetime.end.p0(i64 4, ptr %8) #7
  %63 = load i32, ptr %4, align 4
  ret i32 %63
}