; Function Attrs: nounwind uwtable
define hidden i32 @mbedtls_pk_write_pubkey(ptr noundef %0, ptr noundef %1, ptr noundef %2) local_unnamed_addr #0 {
  %4 = alloca %struct.mbedtls_pk_context, align 8
  %5 = alloca i64, align 8
  %6 = alloca [133 x i8], align 16
  %7 = alloca %struct.mbedtls_pk_context, align 8
  %8 = tail call i32 @mbedtls_pk_get_type(ptr noundef %2) #6
  %9 = icmp eq i32 %8, 1
  br i1 %9, label %10, label %18

10:                                               ; preds = %3
  %11 = load ptr, ptr %2, align 8
  %12 = getelementptr inbounds nuw i8, ptr %2, i64 8
  %13 = load ptr, ptr %12, align 8
  call void @llvm.lifetime.start.p0(i64 16, ptr nonnull %7)
  store ptr %11, ptr %7, align 8
  %14 = getelementptr inbounds nuw i8, ptr %7, i64 8
  store ptr %13, ptr %14, align 8
  %15 = call i32 @mbedtls_pk_get_type(ptr noundef nonnull %7) #6
  %cond.i = icmp eq i32 %15, 1
  %16 = load ptr, ptr %14, align 8
  %.0.i = select i1 %cond.i, ptr %16, ptr null
  call void @llvm.lifetime.end.p0(i64 16, ptr nonnull %7)
  %17 = call i32 @mbedtls_rsa_write_pubkey(ptr noundef %.0.i, ptr noundef %1, ptr noundef %0) #6
  br label %42

18:                                               ; preds = %3
  %19 = tail call i32 @mbedtls_pk_get_type(ptr noundef %2) #6
  %20 = icmp eq i32 %19, 2
  br i1 %20, label %21, label %42

21:                                               ; preds = %18
  %.val = load ptr, ptr %2, align 8
  %22 = getelementptr i8, ptr %2, i64 8
  %.val19 = load ptr, ptr %22, align 8
  call void @llvm.lifetime.start.p0(i64 8, ptr nonnull %5) #6
  store i64 0, ptr %5, align 8, !tbaa !3
  call void @llvm.lifetime.start.p0(i64 133, ptr nonnull %6) #6
  call void @llvm.lifetime.start.p0(i64 16, ptr nonnull %4)
  store ptr %.val, ptr %4, align 8
  %23 = getelementptr inbounds nuw i8, ptr %4, i64 8
  store ptr %.val19, ptr %23, align 8
  %24 = call i32 @mbedtls_pk_get_type(ptr noundef nonnull %4) #6
  %.off.i.i = add i32 %24, -2
  %switch.i.i = icmp ult i32 %.off.i.i, 3
  %25 = load ptr, ptr %23, align 8
  %.0.i.i = select i1 %switch.i.i, ptr %25, ptr null
  call void @llvm.lifetime.end.p0(i64 16, ptr nonnull %4)
  %26 = getelementptr inbounds nuw i8, ptr %25, i64 208
  %27 = call i32 @mbedtls_ecp_point_write_binary(ptr noundef %.0.i.i, ptr noundef nonnull %26, i32 noundef 0, ptr noundef nonnull %5, ptr noundef nonnull %6, i64 noundef 133) #6
  %.not.i = icmp eq i32 %27, 0
  br i1 %.not.i, label %28, label %pk_write_ec_pubkey.exit

28:                                               ; preds = %21
  %29 = load ptr, ptr %0, align 8, !tbaa !7
  %30 = icmp ult ptr %29, %1
  br i1 %30, label %pk_write_ec_pubkey.exit, label %31

31:                                               ; preds = %28
  %32 = ptrtoint ptr %29 to i64
  %33 = ptrtoint ptr %1 to i64
  %34 = sub i64 %32, %33
  %35 = load i64, ptr %5, align 8, !tbaa !3
  %36 = icmp ult i64 %34, %35
  br i1 %36, label %pk_write_ec_pubkey.exit, label %37

37:                                               ; preds = %31
  %38 = sub i64 0, %35
  %39 = getelementptr inbounds i8, ptr %29, i64 %38
  store ptr %39, ptr %0, align 8, !tbaa !7
  call void @llvm.memcpy.p0.p0.i64(ptr align 1 %39, ptr nonnull align 16 %6, i64 %35, i1 false)
  %40 = load i64, ptr %5, align 8, !tbaa !3
  %41 = trunc i64 %40 to i32
  br label %pk_write_ec_pubkey.exit

pk_write_ec_pubkey.exit:                          ; preds = %21, %28, %31, %37
  %.0.i20 = phi i32 [ %41, %37 ], [ %27, %21 ], [ -108, %31 ], [ -108, %28 ]
  call void @llvm.lifetime.end.p0(i64 133, ptr nonnull %6) #6
  call void @llvm.lifetime.end.p0(i64 8, ptr nonnull %5) #6
  br label %42

42:                                               ; preds = %pk_write_ec_pubkey.exit, %10, %18
  %.015 = phi i32 [ -14720, %18 ], [ %17, %10 ], [ %.0.i20, %pk_write_ec_pubkey.exit ]
  ret i32 %.015
}